; Function Attrs: mustprogress uwtable
define dso_local void @_ZN18BM_rcVector_Assign4BodyEv() local_unnamed_addr #3 align 2 personality ptr @__gxx_personality_v0 {
  %1 = alloca %class.rcTempVector, align 8
  %2 = alloca i32, align 4
  %3 = getelementptr inbounds nuw i8, ptr %1, i64 8
  call void @llvm.memset.p0.i64(ptr noundef nonnull align 8 dereferenceable(24) %3, i8 0, i64 16, i1 false)
  store i32 2, ptr %2, align 4
  store i64 0, ptr %1, align 8
  invoke void @_ZN12rcVectorBaseIiL11rcAllocHint1EE11resize_implElPKi(ptr noundef nonnull align 8 dereferenceable(24) %1, i64 noundef 100000, ptr noundef nonnull align 4 dereferenceable(4) %2)
          to label %_ZN12rcVectorBaseIiL11rcAllocHint1EE6assignElRKi.exit unwind label %11

_ZN12rcVectorBaseIiL11rcAllocHint1EE6assignElRKi.exit: ; preds = %0
  %4 = getelementptr inbounds nuw i8, ptr %1, i64 16
  %5 = load ptr, ptr %4, align 8
  %6 = call ptr asm sideeffect "", "=r,0,~{dirflag},~{fpsr},~{flags}"(ptr %5) #16, !srcloc !7
  %7 = load ptr, ptr %4, align 8
  invoke void @_Z6rcFreePv(ptr noundef %7)
          to label %_ZN12rcTempVectorIiED2Ev.exit unwind label %8

8:                                                ; preds = %_ZN12rcVectorBaseIiL11rcAllocHint1EE6assignElRKi.exit
  %9 = landingpad { ptr, i32 }
          catch ptr null
  %10 = extractvalue { ptr, i32 } %9, 0
  call void @__clang_call_terminate(ptr %10) #17
  unreachable

_ZN12rcTempVectorIiED2Ev.exit:                    ; preds = %_ZN12rcVectorBaseIiL11rcAllocHint1EE6assignElRKi.exit
  ret void

11:                                               ; preds = %0
  %12 = landingpad { ptr, i32 }
          cleanup
  %13 = getelementptr inbounds nuw i8, ptr %1, i64 16
  %14 = load ptr, ptr %13, align 8
  invoke void @_Z6rcFreePv(ptr noundef %14)
          to label %_ZN12rcTempVectorIiED2Ev.exit1 unwind label %15

15:                                               ; preds = %11
  %16 = landingpad { ptr, i32 }
          catch ptr null
  %17 = extractvalue { ptr, i32 } %16, 0
  call void @__clang_call_terminate(ptr %17) #17
  unreachable

_ZN12rcTempVectorIiED2Ev.exit1:                   ; preds = %11
  resume { ptr, i32 } %12
}